target datalayout = "e-m:e-p270:32:32-p271:32:32-p272:64:64-i64:64-i128:128-f80:128-n8:16:32:64-S128"
target triple = "x86_64-pc-linux-gnu"

%"class.cv::tinyxml2::StrPair" = type { i32, ptr, ptr }
%"class.cv::tinyxml2::XMLDocument" = type { %"class.cv::tinyxml2::XMLNode", i8, i8, i32, i32, ptr, ptr, ptr, %"class.cv::tinyxml2::MemPoolT", %"class.cv::tinyxml2::MemPoolT.0", %"class.cv::tinyxml2::MemPoolT.2", %"class.cv::tinyxml2::MemPoolT.4" }
%"class.cv::tinyxml2::XMLNode" = type { ptr, ptr, ptr, %"class.cv::tinyxml2::StrPair", ptr, ptr, ptr, ptr, ptr }
%"class.cv::tinyxml2::MemPoolT" = type { %"class.cv::tinyxml2::MemPool", %"class.cv::tinyxml2::DynArray", ptr, i32, i32, i32, i32 }
%"class.cv::tinyxml2::MemPool" = type { ptr }
%"class.cv::tinyxml2::DynArray" = type { ptr, [10 x ptr], i32, i32 }
%"class.cv::tinyxml2::MemPoolT.0" = type { %"class.cv::tinyxml2::MemPool", %"class.cv::tinyxml2::DynArray.1", ptr, i32, i32, i32, i32 }
%"class.cv::tinyxml2::DynArray.1" = type { ptr, [10 x ptr], i32, i32 }
%"class.cv::tinyxml2::MemPoolT.2" = type { %"class.cv::tinyxml2::MemPool", %"class.cv::tinyxml2::DynArray.3", ptr, i32, i32, i32, i32 }
%"class.cv::tinyxml2::DynArray.3" = type { ptr, [10 x ptr], i32, i32 }
%"class.cv::tinyxml2::MemPoolT.4" = type { %"class.cv::tinyxml2::MemPool", %"class.cv::tinyxml2::DynArray.5", ptr, i32, i32, i32, i32 }
%"class.cv::tinyxml2::DynArray.5" = type { ptr, [10 x ptr], i32, i32 }
%"class.cv::tinyxml2::XMLElement" = type { %"class.cv::tinyxml2::XMLNode", i32, ptr }
%"class.cv::tinyxml2::XMLAttribute" = type { ptr, %"class.cv::tinyxml2::StrPair", %"class.cv::tinyxml2::StrPair", ptr, ptr }

@_ZN2cv8tinyxml210XMLElementC1EPNS0_11XMLDocumentE = hidden unnamed_addr alias void (ptr, ptr), ptr @_ZN2cv8tinyxml210XMLElementC2EPNS0_11XMLDocumentE

; Function Attrs: mustprogress nounwind uwtable
define hidden void @_ZN2cv8tinyxml27StrPair5ResetEv(ptr noundef nonnull align 8 dereferenceable(24) %0) #0 align 2 {
  %2 = alloca ptr, align 8
  store ptr %0, ptr %2, align 8, !tbaa !3
  %3 = load ptr, ptr %2, align 8
  %4 = getelementptr inbounds nuw %"class.cv::tinyxml2::StrPair", ptr %3, i32 0, i32 0
  %5 = load i32, ptr %4, align 8, !tbaa !8
  %6 = and i32 %5, 512
  %7 = icmp ne i32 %6, 0
  br i1 %7, label %8, label %14

8:                                                ; preds = %1
  %9 = getelementptr inbounds nuw %"class.cv::tinyxml2::StrPair", ptr %3, i32 0, i32 1
  %10 = load ptr, ptr %9, align 8, !tbaa !12
  %11 = icmp eq ptr %10, null
  br i1 %11, label %13, label %12

12:                                               ; preds = %8
  call void @_ZdaPv(ptr noundef %10) #16
  br label %13

13:                                               ; preds = %12, %8
  br label %14

14:                                               ; preds = %13, %1
  %15 = getelementptr inbounds nuw %"class.cv::tinyxml2::StrPair", ptr %3, i32 0, i32 0
  store i32 0, ptr %15, align 8, !tbaa !8
  %16 = getelementptr inbounds nuw %"class.cv::tinyxml2::StrPair", ptr %3, i32 0, i32 1
  store ptr null, ptr %16, align 8, !tbaa !12
  %17 = getelementptr inbounds nuw %"class.cv::tinyxml2::StrPair", ptr %3, i32 0, i32 2
  store ptr null, ptr %17, align 8, !tbaa !13
  ret void
}

; Function Attrs: mustprogress nounwind uwtable
define linkonce_odr hidden void @_ZN2cv8tinyxml27StrPair14SetInternedStrEPKc(ptr noundef nonnull align 8 dereferenceable(24) %0, ptr noundef %1) #0 comdat align 2 {
  %3 = alloca ptr, align 8
  %4 = alloca ptr, align 8
  store ptr %0, ptr %3, align 8, !tbaa !3
  store ptr %1, ptr %4, align 8, !tbaa !14
  %5 = load ptr, ptr %3, align 8
  call void @_ZN2cv8tinyxml27StrPair5ResetEv(ptr noundef nonnull align 8 dereferenceable(24) %5)
  %6 = load ptr, ptr %4, align 8, !tbaa !14
  %7 = getelementptr inbounds nuw %"class.cv::tinyxml2::StrPair", ptr %5, i32 0, i32 1
  store ptr %6, ptr %7, align 8, !tbaa !12
  ret void
}

; Function Attrs: mustprogress uwtable
define hidden void @_ZN2cv8tinyxml27StrPair6SetStrEPKci(ptr noundef nonnull align 8 dereferenceable(24) %0, ptr noundef %1, i32 noundef %2) #3 align 2 {
  %4 = alloca ptr, align 8
  %5 = alloca ptr, align 8
  %6 = alloca i32, align 4
  %7 = alloca i64, align 8
  store ptr %0, ptr %4, align 8, !tbaa !3
  store ptr %1, ptr %5, align 8, !tbaa !14
  store i32 %2, ptr %6, align 4, !tbaa !15
  %8 = load ptr, ptr %4, align 8
  call void @_ZN2cv8tinyxml27StrPair5ResetEv(ptr noundef nonnull align 8 dereferenceable(24) %8)
  call void @llvm.lifetime.start.p0(i64 8, ptr %7) #17
  %9 = load ptr, ptr %5, align 8, !tbaa !14
  %10 = call i64 @strlen(ptr noundef %9) #18
  store i64 %10, ptr %7, align 8, !tbaa !16
  %11 = load i64, ptr %7, align 8, !tbaa !16
  %12 = add i64 %11, 1
  %13 = call noalias noundef nonnull ptr @_Znam(i64 noundef %12) #19
  %14 = getelementptr inbounds nuw %"class.cv::tinyxml2::StrPair", ptr %8, i32 0, i32 1
  store ptr %13, ptr %14, align 8, !tbaa !12
  %15 = getelementptr inbounds nuw %"class.cv::tinyxml2::StrPair", ptr %8, i32 0, i32 1
  %16 = load ptr, ptr %15, align 8, !tbaa !12
  %17 = load ptr, ptr %5, align 8, !tbaa !14
  %18 = load i64, ptr %7, align 8, !tbaa !16
  %19 = add i64 %18, 1
  call void @llvm.memcpy.p0.p0.i64(ptr align 1 %16, ptr align 1 %17, i64 %19, i1 false)
  %20 = getelementptr inbounds nuw %"class.cv::tinyxml2::StrPair", ptr %8, i32 0, i32 1
  %21 = load ptr, ptr %20, align 8, !tbaa !12
  %22 = load i64, ptr %7, align 8, !tbaa !16
  %23 = getelementptr inbounds nuw i8, ptr %21, i64 %22
  %24 = getelementptr inbounds nuw %"class.cv::tinyxml2::StrPair", ptr %8, i32 0, i32 2
  store ptr %23, ptr %24, align 8, !tbaa !13
  %25 = load i32, ptr %6, align 4, !tbaa !15
  %26 = or i32 %25, 512
  %27 = getelementptr inbounds nuw %"class.cv::tinyxml2::StrPair", ptr %8, i32 0, i32 0
  store i32 %26, ptr %27, align 8, !tbaa !8
  call void @llvm.lifetime.end.p0(i64 8, ptr %7) #17
  ret void
}

; Function Attrs: mustprogress uwtable
define hidden void @_ZN2cv8tinyxml27XMLNode8SetValueEPKcb(ptr noundef nonnull align 8 dereferenceable(88) %0, ptr noundef %1, i1 noundef zeroext %2) #3 align 2 {
  %4 = alloca ptr, align 8
  %5 = alloca ptr, align 8
  %6 = alloca i8, align 1
  store ptr %0, ptr %4, align 8, !tbaa !55
  store ptr %1, ptr %5, align 8, !tbaa !14
  %7 = zext i1 %2 to i8
  store i8 %7, ptr %6, align 1, !tbaa !37
  %8 = load ptr, ptr %4, align 8
  %9 = load i8, ptr %6, align 1, !tbaa !37, !range !39, !noundef !40
  %10 = trunc i8 %9 to i1
  br i1 %10, label %11, label %14

11:                                               ; preds = %3
  %12 = getelementptr inbounds nuw %"class.cv::tinyxml2::XMLNode", ptr %8, i32 0, i32 3
  %13 = load ptr, ptr %5, align 8, !tbaa !14
  call void @_ZN2cv8tinyxml27StrPair14SetInternedStrEPKc(ptr noundef nonnull align 8 dereferenceable(24) %12, ptr noundef %13)
  br label %17

14:                                               ; preds = %3
  %15 = getelementptr inbounds nuw %"class.cv::tinyxml2::XMLNode", ptr %8, i32 0, i32 3
  %16 = load ptr, ptr %5, align 8, !tbaa !14
  call void @_ZN2cv8tinyxml27StrPair6SetStrEPKci(ptr noundef nonnull align 8 dereferenceable(24) %15, ptr noundef %16, i32 noundef 0)
  br label %17

17:                                               ; preds = %14, %11
  ret void
}

; Function Attrs: mustprogress uwtable
define hidden void @_ZN2cv8tinyxml212XMLAttribute12SetAttributeEPKc(ptr noundef nonnull align 8 dereferenceable(72) %0, ptr noundef %1) #3 align 2 {
  %3 = alloca ptr, align 8
  %4 = alloca ptr, align 8
  store ptr %0, ptr %3, align 8, !tbaa !151
  store ptr %1, ptr %4, align 8, !tbaa !14
  %5 = load ptr, ptr %3, align 8
  %6 = getelementptr inbounds nuw %"class.cv::tinyxml2::XMLAttribute", ptr %5, i32 0, i32 2
  %7 = load ptr, ptr %4, align 8, !tbaa !14
  call void @_ZN2cv8tinyxml27StrPair6SetStrEPKci(ptr noundef nonnull align 8 dereferenceable(24) %6, ptr noundef %7, i32 noundef 0)
  ret void
}

; Function Attrs: mustprogress uwtable
define linkonce_odr hidden void @_ZN2cv8tinyxml210XMLElement7SetNameEPKcb(ptr noundef nonnull align 8 dereferenceable(104) %0, ptr noundef %1, i1 noundef zeroext %2) #3 comdat align 2 {
  %4 = alloca ptr, align 8
  %5 = alloca ptr, align 8
  %6 = alloca i8, align 1
  store ptr %0, ptr %4, align 8, !tbaa !121
  store ptr %1, ptr %5, align 8, !tbaa !14
  %7 = zext i1 %2 to i8
  store i8 %7, ptr %6, align 1, !tbaa !37
  %8 = load ptr, ptr %4, align 8
  %9 = load ptr, ptr %5, align 8, !tbaa !14
  %10 = load i8, ptr %6, align 1, !tbaa !37, !range !39, !noundef !40
  %11 = trunc i8 %10 to i1
  call void @_ZN2cv8tinyxml27XMLNode8SetValueEPKcb(ptr noundef nonnull align 8 dereferenceable(88) %8, ptr noundef %9, i1 noundef zeroext %11)
  ret void
}

; Function Attrs: mustprogress nounwind uwtable
define linkonce_odr hidden noundef ptr @_ZNK2cv8tinyxml212XMLAttribute4NextEv(ptr noundef nonnull align 8 dereferenceable(72) %0) #0 comdat align 2 {
  %2 = alloca ptr, align 8
  store ptr %0, ptr %2, align 8, !tbaa !151
  %3 = load ptr, ptr %2, align 8
  %4 = getelementptr inbounds nuw %"class.cv::tinyxml2::XMLAttribute", ptr %3, i32 0, i32 3
  %5 = load ptr, ptr %4, align 8, !tbaa !153
  ret ptr %5
}

; Function Attrs: mustprogress uwtable
define linkonce_odr hidden void @_ZN2cv8tinyxml210XMLElement12SetAttributeEPKcS3_(ptr noundef nonnull align 8 dereferenceable(104) %0, ptr noundef %1, ptr noundef %2) #3 comdat align 2 {
  %4 = alloca ptr, align 8
  %5 = alloca ptr, align 8
  %6 = alloca ptr, align 8
  %7 = alloca ptr, align 8
  store ptr %0, ptr %4, align 8, !tbaa !121
  store ptr %1, ptr %5, align 8, !tbaa !14
  store ptr %2, ptr %6, align 8, !tbaa !14
  %8 = load ptr, ptr %4, align 8
  call void @llvm.lifetime.start.p0(i64 8, ptr %7) #17
  %9 = load ptr, ptr %5, align 8, !tbaa !14
  %10 = call noundef ptr @_ZN2cv8tinyxml210XMLElement21FindOrCreateAttributeEPKc(ptr noundef nonnull align 8 dereferenceable(104) %8, ptr noundef %9)
  store ptr %10, ptr %7, align 8, !tbaa !151
  %11 = load ptr, ptr %7, align 8, !tbaa !151
  %12 = load ptr, ptr %6, align 8, !tbaa !14
  call void @_ZN2cv8tinyxml212XMLAttribute12SetAttributeEPKc(ptr noundef nonnull align 8 dereferenceable(72) %11, ptr noundef %12)
  call void @llvm.lifetime.end.p0(i64 8, ptr %7) #17
  ret void
}

; Function Attrs: mustprogress uwtable
define hidden noundef ptr @_ZNK2cv8tinyxml212XMLAttribute5ValueEv(ptr noundef nonnull align 8 dereferenceable(72) %0) #3 align 2 {
  %2 = alloca ptr, align 8
  store ptr %0, ptr %2, align 8, !tbaa !151
  %3 = load ptr, ptr %2, align 8
  %4 = getelementptr inbounds nuw %"class.cv::tinyxml2::XMLAttribute", ptr %3, i32 0, i32 2
  %5 = call noundef ptr @_ZN2cv8tinyxml27StrPair6GetStrEv(ptr noundef nonnull align 8 dereferenceable(24) %4)
  ret ptr %5
}

; Function Attrs: mustprogress uwtable
define hidden noundef ptr @_ZNK2cv8tinyxml212XMLAttribute4NameEv(ptr noundef nonnull align 8 dereferenceable(72) %0) #3 align 2 {
  %2 = alloca ptr, align 8
  store ptr %0, ptr %2, align 8, !tbaa !151
  %3 = load ptr, ptr %2, align 8
  %4 = getelementptr inbounds nuw %"class.cv::tinyxml2::XMLAttribute", ptr %3, i32 0, i32 1
  %5 = call noundef ptr @_ZN2cv8tinyxml27StrPair6GetStrEv(ptr noundef nonnull align 8 dereferenceable(24) %4)
  ret ptr %5
}

; Function Attrs: mustprogress nounwind uwtable
define linkonce_odr hidden noundef ptr @_ZNK2cv8tinyxml210XMLElement14FirstAttributeEv(ptr noundef nonnull align 8 dereferenceable(104) %0) #0 comdat align 2 {
  %2 = alloca ptr, align 8
  store ptr %0, ptr %2, align 8, !tbaa !121
  %3 = load ptr, ptr %2, align 8
  %4 = getelementptr inbounds nuw %"class.cv::tinyxml2::XMLElement", ptr %3, i32 0, i32 2
  %5 = load ptr, ptr %4, align 8, !tbaa !152
  ret ptr %5
}

; Function Attrs: mustprogress uwtable
define hidden noundef ptr @_ZN2cv8tinyxml211XMLDocument10NewElementEPKc(ptr noundef nonnull align 8 dereferenceable(640) %0, ptr noundef %1) #3 align 2 {
  %3 = alloca ptr, align 8
  %4 = alloca ptr, align 8
  %5 = alloca ptr, align 8
  store ptr %0, ptr %3, align 8, !tbaa !50
  store ptr %1, ptr %4, align 8, !tbaa !14
  %6 = load ptr, ptr %3, align 8
  call void @llvm.lifetime.start.p0(i64 8, ptr %5) #17
  %7 = getelementptr inbounds nuw %"class.cv::tinyxml2::XMLDocument", ptr %6, i32 0, i32 8
  %8 = call noundef ptr @_ZN2cv8tinyxml28MemPoolTILi104EE5AllocEv(ptr noundef nonnull align 8 dereferenceable(128) %7)
  call void @_ZN2cv8tinyxml210XMLElementC1EPNS0_11XMLDocumentE(ptr noundef nonnull align 8 dereferenceable(104) %8, ptr noundef %6)
  store ptr %8, ptr %5, align 8, !tbaa !121
  %9 = getelementptr inbounds nuw %"class.cv::tinyxml2::XMLDocument", ptr %6, i32 0, i32 8
  %10 = load ptr, ptr %5, align 8, !tbaa !121
  %11 = getelementptr inbounds nuw %"class.cv::tinyxml2::XMLNode", ptr %10, i32 0, i32 8
  store ptr %9, ptr %11, align 8, !tbaa !57
  %12 = load ptr, ptr %5, align 8, !tbaa !121
  %13 = load ptr, ptr %4, align 8, !tbaa !14
  call void @_ZN2cv8tinyxml210XMLElement7SetNameEPKcb(ptr noundef nonnull align 8 dereferenceable(104) %12, ptr noundef %13, i1 noundef zeroext false)
  %14 = load ptr, ptr %5, align 8, !tbaa !121
  call void @llvm.lifetime.end.p0(i64 8, ptr %5) #17
  ret ptr %14
}

; Function Attrs: mustprogress uwtable
define hidden noundef ptr @_ZNK2cv8tinyxml27XMLNode5ValueEv(ptr noundef nonnull align 8 dereferenceable(88) %0) #3 align 2 {
  %2 = alloca ptr, align 8
  store ptr %0, ptr %2, align 8, !tbaa !55
  %3 = load ptr, ptr %2, align 8
  %4 = getelementptr inbounds nuw %"class.cv::tinyxml2::XMLNode", ptr %3, i32 0, i32 3
  %5 = call noundef ptr @_ZN2cv8tinyxml27StrPair6GetStrEv(ptr noundef nonnull align 8 dereferenceable(24) %4)
  ret ptr %5
}

; Function Attrs: mustprogress uwtable
define hidden noundef ptr @_ZNK2cv8tinyxml210XMLElement12ShallowCloneEPNS0_11XMLDocumentE(ptr noundef nonnull align 8 dereferenceable(104) %0, ptr noundef %1) unnamed_addr #3 align 2 {
  %3 = alloca ptr, align 8
  %4 = alloca ptr, align 8
  %5 = alloca ptr, align 8
  %6 = alloca ptr, align 8
  store ptr %0, ptr %3, align 8, !tbaa !121
  store ptr %1, ptr %4, align 8, !tbaa !50
  %7 = load ptr, ptr %3, align 8
  %8 = load ptr, ptr %4, align 8, !tbaa !50
  %9 = icmp ne ptr %8, null
  br i1 %9, label %13, label %10

10:                                               ; preds = %2
  %11 = getelementptr inbounds nuw %"class.cv::tinyxml2::XMLNode", ptr %7, i32 0, i32 1
  %12 = load ptr, ptr %11, align 8, !tbaa !115
  store ptr %12, ptr %4, align 8, !tbaa !50
  br label %13

13:                                               ; preds = %10, %2
  call void @llvm.lifetime.start.p0(i64 8, ptr %5) #17
  %14 = load ptr, ptr %4, align 8, !tbaa !50
  %15 = call noundef ptr @_ZNK2cv8tinyxml27XMLNode5ValueEv(ptr noundef nonnull align 8 dereferenceable(88) %7)
  %16 = call noundef ptr @_ZN2cv8tinyxml211XMLDocument10NewElementEPKc(ptr noundef nonnull align 8 dereferenceable(640) %14, ptr noundef %15)
  store ptr %16, ptr %5, align 8, !tbaa !121
  call void @llvm.lifetime.start.p0(i64 8, ptr %6) #17
  %17 = call noundef ptr @_ZNK2cv8tinyxml210XMLElement14FirstAttributeEv(ptr noundef nonnull align 8 dereferenceable(104) %7)
  store ptr %17, ptr %6, align 8, !tbaa !151
  br label %18

18:                                               ; preds = %28, %13
  %19 = load ptr, ptr %6, align 8, !tbaa !151
  %20 = icmp ne ptr %19, null
  br i1 %20, label %22, label %21

21:                                               ; preds = %18
  call void @llvm.lifetime.end.p0(i64 8, ptr %6) #17
  br label %31

22:                                               ; preds = %18
  %23 = load ptr, ptr %5, align 8, !tbaa !121
  %24 = load ptr, ptr %6, align 8, !tbaa !151
  %25 = call noundef ptr @_ZNK2cv8tinyxml212XMLAttribute4NameEv(ptr noundef nonnull align 8 dereferenceable(72) %24)
  %26 = load ptr, ptr %6, align 8, !tbaa !151
  %27 = call noundef ptr @_ZNK2cv8tinyxml212XMLAttribute5ValueEv(ptr noundef nonnull align 8 dereferenceable(72) %26)
  call void @_ZN2cv8tinyxml210XMLElement12SetAttributeEPKcS3_(ptr noundef nonnull align 8 dereferenceable(104) %23, ptr noundef %25, ptr noundef %27)
  br label %28

28:                                               ; preds = %22
  %29 = load ptr, ptr %6, align 8, !tbaa !151
  %30 = call noundef ptr @_ZNK2cv8tinyxml212XMLAttribute4NextEv(ptr noundef nonnull align 8 dereferenceable(72) %29)
  store ptr %30, ptr %6, align 8, !tbaa !151
  br label %18, !llvm.loop !172

31:                                               ; preds = %21
  %32 = load ptr, ptr %5, align 8, !tbaa !121
  call void @llvm.lifetime.end.p0(i64 8, ptr %5) #17
  ret ptr %32
}