; Function Attrs: mustprogress uwtable
define hidden noundef ptr @_ZNK2cv8tinyxml210XMLElement12ShallowCloneEPNS0_11XMLDocumentE(ptr noundef nonnull align 8 captures(none) dereferenceable(104) %0, ptr noundef %1) unnamed_addr #4 align 2 {
  %.not = icmp eq ptr %1, null
  %3 = getelementptr inbounds nuw i8, ptr %0, i64 8
  %4 = load ptr, ptr %3, align 8
  %.09 = select i1 %.not, ptr %4, ptr %1
  %5 = getelementptr inbounds nuw i8, ptr %0, i64 24
  %6 = tail call noundef ptr @_ZN2cv8tinyxml27StrPair6GetStrEv(ptr noundef nonnull align 8 dereferenceable(24) %5)
  %7 = getelementptr inbounds nuw i8, ptr %.09, i64 128
  %8 = tail call noundef ptr @_ZN2cv8tinyxml28MemPoolTILi104EE5AllocEv(ptr noundef nonnull align 8 dereferenceable(128) %7)
  %9 = getelementptr inbounds nuw i8, ptr %8, i64 8
  store ptr %.09, ptr %9, align 8, !tbaa !33
  %10 = getelementptr inbounds nuw i8, ptr %8, i64 16
  store ptr null, ptr %10, align 8, !tbaa !38
  %11 = getelementptr inbounds nuw i8, ptr %8, i64 24
  %12 = getelementptr inbounds nuw i8, ptr %8, i64 32
  %13 = getelementptr inbounds nuw i8, ptr %8, i64 48
  tail call void @llvm.memset.p0.i64(ptr noundef nonnull align 8 dereferenceable(32) %13, i8 0, i64 32, i1 false)
  store ptr getelementptr inbounds nuw inrange(-16, 144) (i8, ptr @_ZTVN2cv8tinyxml210XMLElementE, i64 16), ptr %8, align 8, !tbaa !39
  %14 = getelementptr inbounds nuw i8, ptr %8, i64 88
  store i32 0, ptr %14, align 8, !tbaa !44
  %15 = getelementptr inbounds nuw i8, ptr %8, i64 96
  store ptr null, ptr %15, align 8, !tbaa !47
  %16 = getelementptr inbounds nuw i8, ptr %8, i64 80
  store ptr %7, ptr %16, align 8, !tbaa !41
  store i32 0, ptr %11, align 8, !tbaa !3
  tail call void @llvm.memset.p0.i64(ptr noundef nonnull align 8 dereferenceable(16) %12, i8 0, i64 16, i1 false)
  %17 = tail call i64 @strlen(ptr noundef nonnull readonly dereferenceable(1) %6) #26
  %18 = add i64 %17, 1
  %19 = tail call noalias noundef nonnull ptr @_Znam(i64 noundef %18) #27
  store ptr %19, ptr %12, align 8, !tbaa !10
  tail call void @llvm.memcpy.p0.p0.i64(ptr nonnull align 1 %19, ptr nonnull readonly align 1 %6, i64 %18, i1 false)
  %20 = getelementptr inbounds nuw i8, ptr %19, i64 %17
  %21 = getelementptr inbounds nuw i8, ptr %8, i64 40
  store ptr %20, ptr %21, align 8, !tbaa !11
  store i32 512, ptr %11, align 8, !tbaa !3
  %22 = getelementptr inbounds nuw i8, ptr %0, i64 96
  %.012 = load ptr, ptr %22, align 8, !tbaa !127
  %.not1113 = icmp eq ptr %.012, null
  br i1 %.not1113, label %._crit_edge, label %.lr.ph

._crit_edge:                                      ; preds = %_ZN2cv8tinyxml210XMLElement12SetAttributeEPKcS3_.exit, %2
  ret ptr %8

.lr.ph:                                           ; preds = %2, %_ZN2cv8tinyxml210XMLElement12SetAttributeEPKcS3_.exit
  %.014 = phi ptr [ %.0, %_ZN2cv8tinyxml210XMLElement12SetAttributeEPKcS3_.exit ], [ %.012, %2 ]
  %23 = getelementptr inbounds nuw i8, ptr %.014, i64 8
  %24 = tail call noundef ptr @_ZN2cv8tinyxml27StrPair6GetStrEv(ptr noundef nonnull align 8 dereferenceable(24) %23)
  %25 = getelementptr inbounds nuw i8, ptr %.014, i64 32
  %26 = tail call noundef ptr @_ZN2cv8tinyxml27StrPair6GetStrEv(ptr noundef nonnull align 8 dereferenceable(24) %25)
  %27 = tail call noundef ptr @_ZN2cv8tinyxml210XMLElement21FindOrCreateAttributeEPKc(ptr noundef nonnull align 8 dereferenceable(104) %8, ptr noundef %24)
  %28 = getelementptr inbounds nuw i8, ptr %27, i64 32
  %29 = load i32, ptr %28, align 8, !tbaa !3
  %30 = and i32 %29, 512
  %.not.i.i.i.i = icmp eq i32 %30, 0
  br i1 %.not.i.i.i.i, label %_ZN2cv8tinyxml210XMLElement12SetAttributeEPKcS3_.exit, label %31

31:                                               ; preds = %.lr.ph
  %32 = getelementptr inbounds nuw i8, ptr %27, i64 40
  %33 = load ptr, ptr %32, align 8, !tbaa !10
  %34 = icmp eq ptr %33, null
  br i1 %34, label %_ZN2cv8tinyxml210XMLElement12SetAttributeEPKcS3_.exit, label %35

35:                                               ; preds = %31
  tail call void @_ZdaPv(ptr noundef nonnull %33) #23
  br label %_ZN2cv8tinyxml210XMLElement12SetAttributeEPKcS3_.exit

_ZN2cv8tinyxml210XMLElement12SetAttributeEPKcS3_.exit: ; preds = %.lr.ph, %31, %35
  store i32 0, ptr %28, align 8, !tbaa !3
  %36 = getelementptr inbounds nuw i8, ptr %27, i64 40
  tail call void @llvm.memset.p0.i64(ptr noundef nonnull align 8 dereferenceable(16) %36, i8 0, i64 16, i1 false)
  %37 = tail call i64 @strlen(ptr noundef nonnull readonly dereferenceable(1) %26) #26
  %38 = add i64 %37, 1
  %39 = tail call noalias noundef nonnull ptr @_Znam(i64 noundef %38) #27
  store ptr %39, ptr %36, align 8, !tbaa !10
  tail call void @llvm.memcpy.p0.p0.i64(ptr nonnull align 1 %39, ptr nonnull readonly align 1 %26, i64 %38, i1 false)
  %40 = getelementptr inbounds nuw i8, ptr %39, i64 %37
  %41 = getelementptr inbounds nuw i8, ptr %27, i64 48
  store ptr %40, ptr %41, align 8, !tbaa !11
  store i32 512, ptr %28, align 8, !tbaa !3
  %42 = getelementptr inbounds nuw i8, ptr %.014, i64 56
  %.0 = load ptr, ptr %42, align 8, !tbaa !127
  %.not11 = icmp eq ptr %.0, null
  br i1 %.not11, label %._crit_edge, label %.lr.ph, !llvm.loop !143
}